target datalayout = "e-m:e-p270:32:32-p271:32:32-p272:64:64-i64:64-i128:128-f80:128-n8:16:32:64-S128"
target triple = "x86_64-pc-linux-gnu"

%struct.darktable_t = type { %struct.dt_codepath_t, i32, i32, ptr, ptr, ptr, ptr, ptr, ptr, ptr, ptr, ptr, ptr, ptr, ptr, ptr, ptr, ptr, ptr, ptr, ptr, ptr, ptr, ptr, ptr, ptr, ptr, ptr, ptr, ptr, [64 x %struct.dt_pthread_mutex_t], %struct.dt_pthread_mutex_t, %struct.dt_pthread_mutex_t, %struct.dt_pthread_mutex_t, %struct.dt_pthread_mutex_t, %struct.dt_pthread_mutex_t, ptr, ptr, ptr, ptr, ptr, ptr, ptr, ptr, ptr, ptr, ptr, ptr, ptr, %struct.dt_lua_state_t, ptr, double, ptr, i32, [47 x i32], i32, i32, ptr, ptr, %struct.dt_sys_resources_t, %struct.dt_backthumb_t, %struct.dt_gimp_t }
%struct.dt_codepath_t = type { i8, [3 x i8] }
%struct.dt_pthread_mutex_t = type { %union.pthread_mutex_t }
%union.pthread_mutex_t = type { %struct.__pthread_mutex_s }
%struct.__pthread_mutex_s = type { i32, i32, i32, i32, i32, i16, i16, %struct.__pthread_internal_list }
%struct.__pthread_internal_list = type { ptr, ptr }
%struct.dt_lua_state_t = type { i32 }
%struct.dt_sys_resources_t = type { i64, i64, ptr, ptr, i32 }
%struct.dt_backthumb_t = type { double, double, i32, i32, i32, i32 }
%struct.dt_gimp_t = type { i32, ptr, ptr, i32, i32 }
%struct.dt_iop_module_t = type { i32, ptr, ptr, ptr, ptr, ptr, ptr, ptr, ptr, ptr, ptr, ptr, ptr, ptr, ptr, ptr, ptr, ptr, ptr, ptr, ptr, ptr, ptr, ptr, ptr, ptr, ptr, ptr, ptr, ptr, ptr, ptr, ptr, ptr, ptr, ptr, ptr, ptr, ptr, ptr, ptr, ptr, ptr, ptr, ptr, ptr, ptr, ptr, ptr, ptr, ptr, ptr, ptr, ptr, ptr, ptr, ptr, [20 x i8], i32, i32, i32, i32, i32, i32, i32, [8 x i8], [4 x float], [4 x float], [4 x float], [4 x float], [4 x float], [4 x float], ptr, %struct.dt_dev_histogram_stats_t, [4 x i32], i32, i32, ptr, i32, i32, ptr, ptr, i32, ptr, %struct.dt_pthread_mutex_t, ptr, ptr, ptr, ptr, %struct.anon, ptr, ptr, ptr, ptr, ptr, ptr, ptr, i32, ptr, ptr, ptr, ptr, ptr, ptr, ptr, i32, ptr, i32, [128 x i8], i32, ptr, ptr, i32, [12 x i8] }
%struct.dt_dev_histogram_stats_t = type { i32, i64, i32, i32 }
%struct.anon = type { %struct.anon.0, %struct.anon.1 }
%struct.anon.0 = type { ptr, ptr }
%struct.anon.1 = type { ptr, i32 }
%struct.dt_iop_rgblevels_gui_data_t = type { %struct.dt_iop_rgblevels_params_t, ptr, ptr, ptr, ptr, ptr, ptr, i32, i32, float, float, float, float, [4 x float], i32, double, double, i32, i32, float, i32, float, ptr, ptr, ptr }
%struct.dt_iop_rgblevels_params_t = type { i32, i32, [3 x [3 x float]] }
%struct.dt_gui_gtk_t = type { ptr, %struct.dt_gui_widgets_t, %struct.dt_gui_scrollbars_t, i32, ptr, i32, [39 x %struct._GdkRGBA], i32, i32, i32, i32, i32, double, double, double, double, ptr, double, double, double, double, i32, i32, [4096 x i8], i32, i32, i32, %struct.dt_pthread_mutex_t }
%struct.dt_gui_widgets_t = type { ptr, ptr, ptr, ptr, i32, i32, i32 }
%struct.dt_gui_scrollbars_t = type { ptr, ptr, i32 }
%struct._GdkRGBA = type { double, double, double, double }

@darktable = external global %struct.darktable_t, align 8

; Function Attrs: inlinehint nounwind uwtable
define internal i32 @dt_pthread_mutex_unlock(ptr noundef %0) #8 {
  %2 = alloca ptr, align 8
  store ptr %0, ptr %2, align 8, !tbaa !262
  %3 = load ptr, ptr %2, align 8, !tbaa !262
  %4 = getelementptr inbounds nuw %struct.dt_pthread_mutex_t, ptr %3, i32 0, i32 0
  %5 = call i32 @pthread_mutex_unlock(ptr noundef %4) #13
  ret i32 %5
}

; Function Attrs: inlinehint nounwind uwtable
define internal i32 @dt_pthread_mutex_lock(ptr noundef %0) #8 {
  %2 = alloca ptr, align 8
  store ptr %0, ptr %2, align 8, !tbaa !262
  %3 = load ptr, ptr %2, align 8, !tbaa !262
  %4 = getelementptr inbounds nuw %struct.dt_pthread_mutex_t, ptr %3, i32 0, i32 0
  %5 = call i32 @pthread_mutex_lock(ptr noundef %4) #13
  ret i32 %5
}

; Function Attrs: inlinehint nounwind uwtable
define internal void @dt_iop_gui_leave_critical_section(ptr noundef %0) #8 {
  %2 = alloca ptr, align 8
  store ptr %0, ptr %2, align 8, !tbaa !6
  %3 = load ptr, ptr %2, align 8, !tbaa !6
  %4 = getelementptr inbounds nuw %struct.dt_iop_module_t, ptr %3, i32 0, i32 84
  %5 = call i32 @dt_pthread_mutex_unlock(ptr noundef %4)
  ret void
}

; Function Attrs: inlinehint nounwind uwtable
define internal void @dt_iop_gui_enter_critical_section(ptr noundef %0) #8 {
  %2 = alloca ptr, align 8
  store ptr %0, ptr %2, align 8, !tbaa !6
  %3 = load ptr, ptr %2, align 8, !tbaa !6
  %4 = getelementptr inbounds nuw %struct.dt_iop_module_t, ptr %3, i32 0, i32 84
  %5 = call i32 @dt_pthread_mutex_lock(ptr noundef %4)
  ret void
}

; Function Attrs: nounwind uwtable
define internal void @_select_region_toggled_callback(ptr noundef %0, ptr noundef %1) #0 {
  %3 = alloca ptr, align 8
  %4 = alloca ptr, align 8
  %5 = alloca ptr, align 8
  store ptr %0, ptr %3, align 8, !tbaa !234
  store ptr %1, ptr %4, align 8, !tbaa !6
  %6 = load ptr, ptr getelementptr inbounds nuw (%struct.darktable_t, ptr @darktable, i32 0, i32 14), align 8, !tbaa !176
  %7 = getelementptr inbounds nuw %struct.dt_gui_gtk_t, ptr %6, i32 0, i32 5
  %8 = load i32, ptr %7, align 8, !tbaa !177
  %9 = icmp ne i32 %8, 0
  br i1 %9, label %10, label %11

10:                                               ; preds = %2
  br label %50

11:                                               ; preds = %2
  call void @llvm.lifetime.start.p0(i64 8, ptr %5) #13
  %12 = load ptr, ptr %4, align 8, !tbaa !6
  %13 = getelementptr inbounds nuw %struct.dt_iop_module_t, ptr %12, i32 0, i32 83
  %14 = load ptr, ptr %13, align 16, !tbaa !21
  store ptr %14, ptr %5, align 8, !tbaa !37
  %15 = load ptr, ptr %4, align 8, !tbaa !6
  call void @dt_iop_request_focus(ptr noundef %15)
  %16 = load ptr, ptr %4, align 8, !tbaa !6
  %17 = getelementptr inbounds nuw %struct.dt_iop_module_t, ptr %16, i32 0, i32 91
  %18 = load ptr, ptr %17, align 8, !tbaa !233
  %19 = icmp ne ptr %18, null
  br i1 %19, label %20, label %28

20:                                               ; preds = %11
  %21 = load ptr, ptr %4, align 8, !tbaa !6
  %22 = getelementptr inbounds nuw %struct.dt_iop_module_t, ptr %21, i32 0, i32 91
  %23 = load ptr, ptr %22, align 8, !tbaa !233
  %24 = call i64 @gtk_toggle_button_get_type() #14
  %25 = call ptr @g_type_check_instance_cast(ptr noundef %23, i64 noundef %24)
  call void @gtk_toggle_button_set_active(ptr noundef %25, i32 noundef 1)
  %26 = load ptr, ptr getelementptr inbounds nuw (%struct.darktable_t, ptr @darktable, i32 0, i32 9), align 8, !tbaa !51
  %27 = load ptr, ptr %4, align 8, !tbaa !6
  call void @dt_dev_add_history_item(ptr noundef %26, ptr noundef %27, i32 noundef 1)
  br label %28

28:                                               ; preds = %20, %11
  %29 = load ptr, ptr %4, align 8, !tbaa !6
  call void @dt_iop_color_picker_reset(ptr noundef %29, i32 noundef 1)
  %30 = load ptr, ptr %4, align 8, !tbaa !6
  call void @dt_iop_gui_enter_critical_section(ptr noundef %30)
  %31 = load ptr, ptr %3, align 8, !tbaa !234
  %32 = call i32 @gtk_toggle_button_get_active(ptr noundef %31)
  %33 = icmp ne i32 %32, 0
  br i1 %33, label %34, label %37

34:                                               ; preds = %28
  %35 = load ptr, ptr %5, align 8, !tbaa !37
  %36 = getelementptr inbounds nuw %struct.dt_iop_rgblevels_gui_data_t, ptr %35, i32 0, i32 8
  store i32 1, ptr %36, align 4, !tbaa !39
  br label %40

37:                                               ; preds = %28
  %38 = load ptr, ptr %5, align 8, !tbaa !37
  %39 = getelementptr inbounds nuw %struct.dt_iop_rgblevels_gui_data_t, ptr %38, i32 0, i32 8
  store i32 0, ptr %39, align 4, !tbaa !39
  br label %40

40:                                               ; preds = %37, %34
  %41 = load ptr, ptr %5, align 8, !tbaa !37
  %42 = getelementptr inbounds nuw %struct.dt_iop_rgblevels_gui_data_t, ptr %41, i32 0, i32 12
  store float 0.000000e+00, ptr %42, align 4, !tbaa !48
  %43 = load ptr, ptr %5, align 8, !tbaa !37
  %44 = getelementptr inbounds nuw %struct.dt_iop_rgblevels_gui_data_t, ptr %43, i32 0, i32 11
  store float 0.000000e+00, ptr %44, align 8, !tbaa !50
  %45 = load ptr, ptr %5, align 8, !tbaa !37
  %46 = getelementptr inbounds nuw %struct.dt_iop_rgblevels_gui_data_t, ptr %45, i32 0, i32 10
  store float 0.000000e+00, ptr %46, align 4, !tbaa !47
  %47 = load ptr, ptr %5, align 8, !tbaa !37
  %48 = getelementptr inbounds nuw %struct.dt_iop_rgblevels_gui_data_t, ptr %47, i32 0, i32 9
  store float 0.000000e+00, ptr %48, align 8, !tbaa !49
  %49 = load ptr, ptr %4, align 8, !tbaa !6
  call void @dt_iop_gui_leave_critical_section(ptr noundef %49)
  call void @llvm.lifetime.end.p0(i64 8, ptr %5) #13
  br label %50

50:                                               ; preds = %40, %10
  ret void
}