; Function Attrs: nounwind uwtable
define internal void @_select_region_toggled_callback(ptr noundef %0, ptr noundef %1) #1 {
  %3 = load ptr, ptr getelementptr inbounds nuw (i8, ptr @darktable, i64 104), align 8, !tbaa !155
  %4 = getelementptr inbounds nuw i8, ptr %3, i64 96
  %5 = load i32, ptr %4, align 8, !tbaa !156
  %.not = icmp eq i32 %5, 0
  br i1 %.not, label %6, label %22

6:                                                ; preds = %2
  %7 = getelementptr inbounds nuw i8, ptr %1, i64 704
  %8 = load ptr, ptr %7, align 16, !tbaa !6
  tail call void @dt_iop_request_focus(ptr noundef %1) #21
  %9 = getelementptr inbounds nuw i8, ptr %1, i64 824
  %10 = load ptr, ptr %9, align 8, !tbaa !201
  %.not15 = icmp eq ptr %10, null
  br i1 %.not15, label %15, label %11

11:                                               ; preds = %6
  %12 = tail call i64 @gtk_toggle_button_get_type() #23
  %13 = tail call ptr @g_type_check_instance_cast(ptr noundef nonnull %10, i64 noundef %12) #21
  tail call void @gtk_toggle_button_set_active(ptr noundef %13, i32 noundef 1) #21
  %14 = load ptr, ptr getelementptr inbounds nuw (i8, ptr @darktable, i64 64), align 8, !tbaa !42
  tail call void @dt_dev_add_history_item(ptr noundef %14, ptr noundef nonnull %1, i32 noundef 1) #21
  br label %15

15:                                               ; preds = %11, %6
  tail call void @dt_iop_color_picker_reset(ptr noundef nonnull %1, i32 noundef 1) #21
  %16 = getelementptr inbounds nuw i8, ptr %1, i64 712
  %17 = tail call i32 @pthread_mutex_lock(ptr noundef nonnull %16) #21
  %18 = tail call i32 @gtk_toggle_button_get_active(ptr noundef %0) #21
  %.not16 = icmp ne i32 %18, 0
  %spec.select = zext i1 %.not16 to i32
  %19 = getelementptr inbounds nuw i8, ptr %8, i64 100
  store i32 %spec.select, ptr %19, align 4, !tbaa !27
  %20 = getelementptr inbounds nuw i8, ptr %8, i64 104
  tail call void @llvm.memset.p0.i64(ptr noundef nonnull align 8 dereferenceable(16) %20, i8 0, i64 16, i1 false)
  %21 = tail call i32 @pthread_mutex_unlock(ptr noundef nonnull %16) #21
  br label %22

22:                                               ; preds = %2, %15
  ret void
}